target datalayout = "e-m:e-p270:32:32-p271:32:32-p272:64:64-i64:64-i128:128-f80:128-n8:16:32:64-S128"
target triple = "x86_64-pc-linux-gnu"

%struct._address = type { i32, i32, ptr, ptr }
%struct._packet_info = type { ptr, ptr, i32, i32, %struct.nstime_t, %struct.nstime_t, %struct.nstime_t, i8, ptr, ptr, ptr, ptr, %struct._address, %struct._address, %struct._address, %struct._address, %struct._address, %struct._address, i32, ptr, i8, [3 x i8], %struct.anon, i32, i32, i32, i32, ptr, i8, ptr, ptr, i16, i16, i32, i32, i16, i32, i32, ptr, ptr, ptr, i8, i8, i16, i16, i16, i32, i16, i16, ptr, ptr, ptr, ptr, ptr, i32, i32 }
%struct.nstime_t = type { i64, i32 }
%struct.anon = type { i8, [3 x i8] }
%struct._frame_data = type <{ i32, i32, i32, i32, i32, [4 x i8], i64, ptr, ptr, ptr, i8, i16, [5 x i8], %struct.nstime_t, %struct.nstime_t, i32, i32 }>
%struct.conversation = type { ptr, ptr, ptr, i32, i32, i32, ptr, ptr, i32, ptr }
%struct._rdt_conversation_info = type { [8 x i8], i32, i32 }

@rdt_handle = internal global ptr null, align 8
@proto_rdt = internal global i32 0, align 4

; Function Attrs: inlinehint nounwind null_pointer_is_valid sspstrong uwtable
define internal void @clear_address(ptr noundef %0) #2 {
  %2 = alloca ptr, align 8
  store ptr %0, ptr %2, align 8
  %3 = load ptr, ptr %2, align 8
  %4 = getelementptr inbounds nuw %struct._address, ptr %3, i32 0, i32 0
  store i32 0, ptr %4, align 8
  %5 = load ptr, ptr %2, align 8
  %6 = getelementptr inbounds nuw %struct._address, ptr %5, i32 0, i32 1
  store i32 0, ptr %6, align 4
  %7 = load ptr, ptr %2, align 8
  %8 = getelementptr inbounds nuw %struct._address, ptr %7, i32 0, i32 2
  store ptr null, ptr %8, align 8
  %9 = load ptr, ptr %2, align 8
  %10 = getelementptr inbounds nuw %struct._address, ptr %9, i32 0, i32 3
  store ptr null, ptr %10, align 8
  ret void
}

; Function Attrs: null_pointer_is_valid sspstrong uwtable
define hidden void @rdt_add_address(ptr noundef %0, ptr noundef %1, i32 noundef %2, i32 noundef %3, ptr noundef %4, i32 noundef %5) #0 {
  %7 = alloca ptr, align 8
  %8 = alloca ptr, align 8
  %9 = alloca i32, align 4
  %10 = alloca i32, align 4
  %11 = alloca ptr, align 8
  %12 = alloca i32, align 4
  %13 = alloca %struct._address, align 8
  %14 = alloca ptr, align 8
  %15 = alloca ptr, align 8
  %16 = alloca i32, align 4
  store ptr %0, ptr %7, align 8
  store ptr %1, ptr %8, align 8
  store i32 %2, ptr %9, align 4
  store i32 %3, ptr %10, align 4
  store ptr %4, ptr %11, align 8
  store i32 %5, ptr %12, align 4
  call void @llvm.lifetime.start.p0(i64 24, ptr %13) #5
  call void @llvm.lifetime.start.p0(i64 8, ptr %14) #5
  call void @llvm.lifetime.start.p0(i64 8, ptr %15) #5
  %17 = load ptr, ptr %7, align 8
  %18 = getelementptr inbounds nuw %struct._packet_info, ptr %17, i32 0, i32 8
  %19 = load ptr, ptr %18, align 8
  %20 = getelementptr inbounds nuw %struct._frame_data, ptr %19, i32 0, i32 11
  %21 = load i16, ptr %20, align 1
  %22 = lshr i16 %21, 3
  %23 = and i16 %22, 1
  %24 = zext i16 %23 to i32
  %25 = icmp ne i32 %24, 0
  br i1 %25, label %26, label %27

26:                                               ; preds = %6
  store i32 1, ptr %16, align 4
  br label %91

27:                                               ; preds = %6
  call void @clear_address(ptr noundef %13)
  %28 = load ptr, ptr %7, align 8
  %29 = getelementptr inbounds nuw %struct._packet_info, ptr %28, i32 0, i32 3
  %30 = load i32, ptr %29, align 4
  %31 = load ptr, ptr %8, align 8
  %32 = load i32, ptr %9, align 4
  %33 = load i32, ptr %10, align 4
  %34 = load i32, ptr %10, align 4
  %35 = icmp ne i32 %34, 0
  %36 = xor i1 %35, true
  %37 = select i1 %36, i32 131072, i32 0
  %38 = or i32 65536, %37
  %39 = call ptr @find_conversation(i32 noundef %30, ptr noundef %31, ptr noundef %13, i32 noundef 3, i32 noundef %32, i32 noundef %33, i32 noundef %38)
  store ptr %39, ptr %14, align 8
  %40 = load ptr, ptr %14, align 8
  %41 = icmp ne ptr %40, null
  br i1 %41, label %42, label %50

42:                                               ; preds = %27
  %43 = load ptr, ptr %14, align 8
  %44 = getelementptr inbounds nuw %struct.conversation, ptr %43, i32 0, i32 4
  %45 = load i32, ptr %44, align 4
  %46 = load ptr, ptr %7, align 8
  %47 = getelementptr inbounds nuw %struct._packet_info, ptr %46, i32 0, i32 3
  %48 = load i32, ptr %47, align 4
  %49 = icmp ne i32 %45, %48
  br i1 %49, label %50, label %63

50:                                               ; preds = %42, %27
  %51 = load ptr, ptr %7, align 8
  %52 = getelementptr inbounds nuw %struct._packet_info, ptr %51, i32 0, i32 3
  %53 = load i32, ptr %52, align 4
  %54 = load ptr, ptr %8, align 8
  %55 = load i32, ptr %9, align 4
  %56 = load i32, ptr %10, align 4
  %57 = load i32, ptr %10, align 4
  %58 = icmp ne i32 %57, 0
  %59 = xor i1 %58, true
  %60 = select i1 %59, i32 2, i32 0
  %61 = or i32 1, %60
  %62 = call ptr @conversation_new(i32 noundef %53, ptr noundef %54, ptr noundef %13, i32 noundef 3, i32 noundef %55, i32 noundef %56, i32 noundef %61)
  store ptr %62, ptr %14, align 8
  br label %63

63:                                               ; preds = %50, %42
  %64 = load ptr, ptr %14, align 8
  %65 = load ptr, ptr @rdt_handle, align 8
  call void @conversation_set_dissector(ptr noundef %64, ptr noundef %65)
  %66 = load ptr, ptr %14, align 8
  %67 = load i32, ptr @proto_rdt, align 4
  %68 = call ptr @conversation_get_proto_data(ptr noundef %66, i32 noundef %67)
  store ptr %68, ptr %15, align 8
  %69 = load ptr, ptr %15, align 8
  %70 = icmp ne ptr %69, null
  br i1 %70, label %77, label %71

71:                                               ; preds = %63
  %72 = call ptr @wmem_file_scope()
  %73 = call noalias ptr @wmem_alloc(ptr noundef %72, i64 noundef 16) #6
  store ptr %73, ptr %15, align 8
  %74 = load ptr, ptr %14, align 8
  %75 = load i32, ptr @proto_rdt, align 4
  %76 = load ptr, ptr %15, align 8
  call void @conversation_add_proto_data(ptr noundef %74, i32 noundef %75, ptr noundef %76)
  br label %77

77:                                               ; preds = %71, %63
  %78 = load ptr, ptr %15, align 8
  %79 = getelementptr inbounds nuw %struct._rdt_conversation_info, ptr %78, i32 0, i32 0
  %80 = getelementptr inbounds [8 x i8], ptr %79, i64 0, i64 0
  %81 = load ptr, ptr %11, align 8
  %82 = call i64 @g_strlcpy(ptr noundef %80, ptr noundef %81, i64 noundef 7)
  %83 = load ptr, ptr %7, align 8
  %84 = getelementptr inbounds nuw %struct._packet_info, ptr %83, i32 0, i32 3
  %85 = load i32, ptr %84, align 4
  %86 = load ptr, ptr %15, align 8
  %87 = getelementptr inbounds nuw %struct._rdt_conversation_info, ptr %86, i32 0, i32 1
  store i32 %85, ptr %87, align 4
  %88 = load i32, ptr %12, align 4
  %89 = load ptr, ptr %15, align 8
  %90 = getelementptr inbounds nuw %struct._rdt_conversation_info, ptr %89, i32 0, i32 2
  store i32 %88, ptr %90, align 4
  store i32 0, ptr %16, align 4
  br label %91

91:                                               ; preds = %77, %26
  call void @llvm.lifetime.end.p0(i64 8, ptr %15) #5
  call void @llvm.lifetime.end.p0(i64 8, ptr %14) #5
  call void @llvm.lifetime.end.p0(i64 24, ptr %13) #5
  %92 = load i32, ptr %16, align 4
  switch i32 %92, label %94 [
    i32 0, label %93
    i32 1, label %93
  ]

93:                                               ; preds = %91, %91
  ret void

94:                                               ; preds = %91
  unreachable
}