; Function Attrs: null_pointer_is_valid sspstrong uwtable
define hidden void @rdt_add_address(ptr noundef readonly captures(none) %0, ptr noundef %1, i32 noundef %2, i32 noundef %3, ptr noundef %4, i32 noundef %5) local_unnamed_addr #0 {
  %7 = alloca %struct._address, align 8
  call void @llvm.lifetime.start.p0(i64 24, ptr nonnull %7) #5
  %8 = getelementptr inbounds nuw i8, ptr %0, i64 80
  %9 = load ptr, ptr %8, align 8
  %10 = getelementptr inbounds nuw i8, ptr %9, i64 57
  %11 = load i16, ptr %10, align 1
  %12 = and i16 %11, 8
  %.not = icmp eq i16 %12, 0
  br i1 %.not, label %13, label %37

13:                                               ; preds = %6
  call void @llvm.memset.p0.i64(ptr noundef nonnull align 8 dereferenceable(24) %7, i8 0, i64 24, i1 false)
  %14 = getelementptr inbounds nuw i8, ptr %0, i64 20
  %15 = load i32, ptr %14, align 4
  %.not27 = icmp eq i32 %3, 0
  %16 = select i1 %.not27, i32 196608, i32 65536
  %17 = call ptr @find_conversation(i32 noundef %15, ptr noundef %1, ptr noundef nonnull %7, i32 noundef 3, i32 noundef %2, i32 noundef %3, i32 noundef %16)
  %.not28 = icmp eq ptr %17, null
  %.pre = load i32, ptr %14, align 4
  br i1 %.not28, label %21, label %18

18:                                               ; preds = %13
  %19 = getelementptr inbounds nuw i8, ptr %17, i64 28
  %20 = load i32, ptr %19, align 4
  %.not29 = icmp eq i32 %20, %.pre
  br i1 %.not29, label %24, label %21

21:                                               ; preds = %18, %13
  %22 = select i1 %.not27, i32 3, i32 1
  %23 = call ptr @conversation_new(i32 noundef %.pre, ptr noundef %1, ptr noundef nonnull %7, i32 noundef 3, i32 noundef %2, i32 noundef %3, i32 noundef %22)
  br label %24

24:                                               ; preds = %21, %18
  %.024 = phi ptr [ %23, %21 ], [ %17, %18 ]
  %25 = load ptr, ptr @rdt_handle, align 8
  call void @conversation_set_dissector(ptr noundef %.024, ptr noundef %25)
  %26 = load i32, ptr @proto_rdt, align 4
  %27 = call ptr @conversation_get_proto_data(ptr noundef %.024, i32 noundef %26)
  %.not30 = icmp eq ptr %27, null
  br i1 %.not30, label %28, label %32

28:                                               ; preds = %24
  %29 = call ptr @wmem_file_scope()
  %30 = call noalias dereferenceable_or_null(16) ptr @wmem_alloc(ptr noundef %29, i64 noundef 16) #6
  %31 = load i32, ptr @proto_rdt, align 4
  call void @conversation_add_proto_data(ptr noundef %.024, i32 noundef %31, ptr noundef %30)
  br label %32

32:                                               ; preds = %28, %24
  %.0 = phi ptr [ %27, %24 ], [ %30, %28 ]
  %33 = call i64 @g_strlcpy(ptr noundef %.0, ptr noundef %4, i64 noundef 7)
  %34 = load i32, ptr %14, align 4
  %35 = getelementptr inbounds nuw i8, ptr %.0, i64 8
  store i32 %34, ptr %35, align 4
  %36 = getelementptr inbounds nuw i8, ptr %.0, i64 12
  store i32 %5, ptr %36, align 4
  br label %37

37:                                               ; preds = %6, %32
  call void @llvm.lifetime.end.p0(i64 24, ptr nonnull %7) #5
  ret void
}